(lp0
(lp1
F2.0824656393169513e-05
aF4.581424406497293e-05
aF4.6711273829061985e-05
aF0.000356718192627824
aF0.0003165347771761766
aF0.00014160766347355268
aF8.332281277616462e-05
aF0.0006658739595719382
aF0.00030915576694411415
aF0.0003448275862068965
aF0.0002140309155766944
aF8.323424494649227e-05
aa(lp2
F1.665972511453561e-05
aF3.748438150770512e-05
aF7.322307789420527e-05
aF0.000713436385255648
aF0.000724698042482299
aF0.00025822573927530195
aF4.418634010857215e-05
aF0.0016646848989298453
aF0.000713436385255648
aF0.0006539833531510107
aF0.00016646848989298454
aF0.0002734839476813317
aa(lp3
F1.2494793835901708e-05
aF1.2494793835901708e-05
aF3.2824138366367886e-05
aF0.00045184304399524376
aF0.00021657642648896294
aF5.4144106622240735e-05
aF4.2923873248327235e-05
aF0.0002853745541022592
aF0.0002734839476813317
aF0.0002615933412604043
aF5.945303210463734e-05
aF9.512485136741974e-05
aa.